target datalayout = "e-m:e-p270:32:32-p271:32:32-p272:64:64-i64:64-i128:128-f80:128-n8:16:32:64-S128"
target triple = "x86_64-pc-linux-gnu"

%struct._sapi_module_struct = type { ptr, ptr, ptr, ptr, ptr, ptr, ptr, ptr, ptr, ptr, ptr, ptr, ptr, ptr, ptr, ptr, ptr, ptr, ptr, ptr, ptr, ptr, ptr, ptr, i32, i32, ptr, ptr, ptr, ptr, ptr, ptr, i32, ptr, ptr, ptr }
%struct._zend_refcounted_h = type { i32, %union.anon }
%union.anon = type { i32 }
%struct._zend_string = type { %struct._zend_refcounted_h, i64, i64, [1 x i8] }
%struct.__va_list_tag = type { i32, i32, ptr, ptr }

@sapi_module = external global %struct._sapi_module_struct, align 8
@.str.65 = private unnamed_addr constant [2 x i8] c"\0A\00", align 1
@.str.121 = private unnamed_addr constant [2 x i8] c" \00", align 1
@.str.125 = private unnamed_addr constant [5 x i8] c" => \00", align 1
@.str.126 = private unnamed_addr constant [7 x i8] c"</tr>\0A\00", align 1
@.str.134 = private unnamed_addr constant [6 x i8] c"utf-8\00", align 1
@.str.135 = private unnamed_addr constant [5 x i8] c"<tr>\00", align 1
@.str.144 = private unnamed_addr constant [16 x i8] c"<i>no value</i>\00", align 1
@.str.145 = private unnamed_addr constant [16 x i8] c"<td class=\22%s\22>\00", align 1
@.str.146 = private unnamed_addr constant [2 x i8] c"e\00", align 1
@.str.147 = private unnamed_addr constant [7 x i8] c" </td>\00", align 1

; Function Attrs: nounwind uwtable
define internal i32 @php_info_print_html_esc(ptr noundef %0, i64 noundef %1) #0 {
  %3 = alloca i32, align 4
  %4 = alloca i32, align 4
  %5 = alloca ptr, align 8
  %6 = alloca ptr, align 8
  %7 = alloca i64, align 8
  %8 = alloca i64, align 8
  %9 = alloca ptr, align 8
  store ptr %0, ptr %6, align 8
  store i64 %1, ptr %7, align 8
  %10 = load ptr, ptr %6, align 8
  %11 = load i64, ptr %7, align 8
  %12 = call ptr @php_escape_html_entities(ptr noundef %10, i64 noundef %11, i32 noundef 0, i32 noundef 3, ptr noundef @.str.134)
  store ptr %12, ptr %9, align 8
  %13 = load ptr, ptr %9, align 8
  %14 = getelementptr inbounds %struct._zend_string, ptr %13, i32 0, i32 3
  %15 = getelementptr inbounds [1 x i8], ptr %14, i64 0, i64 0
  %16 = load ptr, ptr %9, align 8
  %17 = getelementptr inbounds %struct._zend_string, ptr %16, i32 0, i32 2
  %18 = load i64, ptr %17, align 8
  %19 = call i64 @php_output_write(ptr noundef %15, i64 noundef %18)
  store i64 %19, ptr %8, align 8
  %20 = load ptr, ptr %9, align 8
  store ptr %20, ptr %5, align 8
  %21 = load ptr, ptr %5, align 8
  %22 = getelementptr inbounds %struct._zend_refcounted_h, ptr %21, i32 0, i32 1
  %23 = load i32, ptr %22, align 4
  store i32 %23, ptr %3, align 4
  %24 = load i32, ptr %3, align 4
  %25 = and i32 %24, 1008
  %26 = and i32 %25, 64
  %27 = icmp ne i32 %26, 0
  br i1 %27, label %41, label %28

28:                                               ; preds = %2
  %29 = load ptr, ptr %5, align 8
  %30 = getelementptr inbounds %struct._zend_refcounted_h, ptr %29, i32 0, i32 1
  %31 = load i32, ptr %30, align 4
  store i32 %31, ptr %4, align 4
  %32 = load i32, ptr %4, align 4
  %33 = and i32 %32, 1008
  %34 = and i32 %33, 128
  %35 = icmp ne i32 %34, 0
  br i1 %35, label %36, label %38

36:                                               ; preds = %28
  %37 = load ptr, ptr %5, align 8
  call void @free(ptr noundef %37) #10
  br label %40

38:                                               ; preds = %28
  %39 = load ptr, ptr %5, align 8
  call void @_efree(ptr noundef %39) #10
  br label %40

40:                                               ; preds = %38, %36
  br label %41

41:                                               ; preds = %40, %2
  %42 = load i64, ptr %8, align 8
  %43 = trunc i64 %42 to i32
  ret i32 %43
}

; Function Attrs: nounwind uwtable
define internal void @php_info_print_table_row_internal(i32 noundef %0, ptr noundef %1, ptr noundef %2) #0 {
  %4 = alloca ptr, align 8
  %5 = alloca ptr, align 8
  %6 = alloca ptr, align 8
  %7 = alloca ptr, align 8
  %8 = alloca ptr, align 8
  %9 = alloca ptr, align 8
  %10 = alloca ptr, align 8
  %11 = alloca ptr, align 8
  %12 = alloca i32, align 4
  %13 = alloca ptr, align 8
  %14 = alloca ptr, align 8
  %15 = alloca i32, align 4
  %16 = alloca ptr, align 8
  store i32 %0, ptr %12, align 4
  store ptr %1, ptr %13, align 8
  store ptr %2, ptr %14, align 8
  %17 = load i32, ptr getelementptr inbounds (%struct._sapi_module_struct, ptr @sapi_module, i32 0, i32 32), align 8
  %18 = icmp ne i32 %17, 0
  br i1 %18, label %24, label %19

19:                                               ; preds = %3
  store ptr @.str.135, ptr %4, align 8
  %20 = load ptr, ptr %4, align 8
  %21 = load ptr, ptr %4, align 8
  %22 = call i64 @strlen(ptr noundef %21) #9
  %23 = call i64 @php_output_write(ptr noundef %20, i64 noundef %22) #10
  br label %24

24:                                               ; preds = %19, %3
  store i32 0, ptr %15, align 4
  br label %25

25:                                               ; preds = %123, %24
  %26 = load i32, ptr %15, align 4
  %27 = load i32, ptr %12, align 4
  %28 = icmp slt i32 %26, %27
  br i1 %28, label %29, label %126

29:                                               ; preds = %25
  %30 = load i32, ptr getelementptr inbounds (%struct._sapi_module_struct, ptr @sapi_module, i32 0, i32 32), align 8
  %31 = icmp ne i32 %30, 0
  br i1 %31, label %41, label %32

32:                                               ; preds = %29
  %33 = load i32, ptr %15, align 4
  %34 = icmp eq i32 %33, 0
  br i1 %34, label %35, label %36

35:                                               ; preds = %32
  br label %38

36:                                               ; preds = %32
  %37 = load ptr, ptr %13, align 8
  br label %38

38:                                               ; preds = %36, %35
  %39 = phi ptr [ @.str.146, %35 ], [ %37, %36 ]
  %40 = call i32 (ptr, ...) @php_info_printf(ptr noundef @.str.145, ptr noundef %39)
  br label %41

41:                                               ; preds = %38, %29
  %42 = load ptr, ptr %14, align 8
  %43 = getelementptr inbounds %struct.__va_list_tag, ptr %42, i32 0, i32 0
  %44 = load i32, ptr %43, align 8
  %45 = icmp ule i32 %44, 40
  br i1 %45, label %46, label %51

46:                                               ; preds = %41
  %47 = getelementptr inbounds %struct.__va_list_tag, ptr %42, i32 0, i32 3
  %48 = load ptr, ptr %47, align 8
  %49 = getelementptr i8, ptr %48, i32 %44
  %50 = add i32 %44, 8
  store i32 %50, ptr %43, align 8
  br label %55

51:                                               ; preds = %41
  %52 = getelementptr inbounds %struct.__va_list_tag, ptr %42, i32 0, i32 2
  %53 = load ptr, ptr %52, align 8
  %54 = getelementptr i8, ptr %53, i32 8
  store ptr %54, ptr %52, align 8
  br label %55

55:                                               ; preds = %51, %46
  %56 = phi ptr [ %49, %46 ], [ %53, %51 ]
  %57 = load ptr, ptr %56, align 8
  store ptr %57, ptr %16, align 8
  %58 = load ptr, ptr %16, align 8
  %59 = icmp ne ptr %58, null
  br i1 %59, label %60, label %64

60:                                               ; preds = %55
  %61 = load ptr, ptr %16, align 8
  %62 = load i8, ptr %61, align 1
  %63 = icmp ne i8 %62, 0
  br i1 %63, label %78, label %64

64:                                               ; preds = %60, %55
  %65 = load i32, ptr getelementptr inbounds (%struct._sapi_module_struct, ptr @sapi_module, i32 0, i32 32), align 8
  %66 = icmp ne i32 %65, 0
  br i1 %66, label %72, label %67

67:                                               ; preds = %64
  store ptr @.str.144, ptr %5, align 8
  %68 = load ptr, ptr %5, align 8
  %69 = load ptr, ptr %5, align 8
  %70 = call i64 @strlen(ptr noundef %69) #9
  %71 = call i64 @php_output_write(ptr noundef %68, i64 noundef %70) #10
  br label %77

72:                                               ; preds = %64
  store ptr @.str.121, ptr %6, align 8
  %73 = load ptr, ptr %6, align 8
  %74 = load ptr, ptr %6, align 8
  %75 = call i64 @strlen(ptr noundef %74) #9
  %76 = call i64 @php_output_write(ptr noundef %73, i64 noundef %75) #10
  br label %77

77:                                               ; preds = %72, %67
  br label %103

78:                                               ; preds = %60
  %79 = load i32, ptr getelementptr inbounds (%struct._sapi_module_struct, ptr @sapi_module, i32 0, i32 32), align 8
  %80 = icmp ne i32 %79, 0
  br i1 %80, label %86, label %81

81:                                               ; preds = %78
  %82 = load ptr, ptr %16, align 8
  %83 = load ptr, ptr %16, align 8
  %84 = call i64 @strlen(ptr noundef %83) #9
  %85 = call i32 @php_info_print_html_esc(ptr noundef %82, i64 noundef %84)
  br label %102

86:                                               ; preds = %78
  %87 = load ptr, ptr %16, align 8
  store ptr %87, ptr %7, align 8
  %88 = load ptr, ptr %7, align 8
  %89 = load ptr, ptr %7, align 8
  %90 = call i64 @strlen(ptr noundef %89) #9
  %91 = call i64 @php_output_write(ptr noundef %88, i64 noundef %90) #10
  %92 = load i32, ptr %15, align 4
  %93 = load i32, ptr %12, align 4
  %94 = sub nsw i32 %93, 1
  %95 = icmp slt i32 %92, %94
  br i1 %95, label %96, label %101

96:                                               ; preds = %86
  store ptr @.str.125, ptr %8, align 8
  %97 = load ptr, ptr %8, align 8
  %98 = load ptr, ptr %8, align 8
  %99 = call i64 @strlen(ptr noundef %98) #9
  %100 = call i64 @php_output_write(ptr noundef %97, i64 noundef %99) #10
  br label %101

101:                                              ; preds = %96, %86
  br label %102

102:                                              ; preds = %101, %81
  br label %103

103:                                              ; preds = %102, %77
  %104 = load i32, ptr getelementptr inbounds (%struct._sapi_module_struct, ptr @sapi_module, i32 0, i32 32), align 8
  %105 = icmp ne i32 %104, 0
  br i1 %105, label %111, label %106

106:                                              ; preds = %103
  store ptr @.str.147, ptr %9, align 8
  %107 = load ptr, ptr %9, align 8
  %108 = load ptr, ptr %9, align 8
  %109 = call i64 @strlen(ptr noundef %108) #9
  %110 = call i64 @php_output_write(ptr noundef %107, i64 noundef %109) #10
  br label %122

111:                                              ; preds = %103
  %112 = load i32, ptr %15, align 4
  %113 = load i32, ptr %12, align 4
  %114 = sub nsw i32 %113, 1
  %115 = icmp eq i32 %112, %114
  br i1 %115, label %116, label %121

116:                                              ; preds = %111
  store ptr @.str.65, ptr %10, align 8
  %117 = load ptr, ptr %10, align 8
  %118 = load ptr, ptr %10, align 8
  %119 = call i64 @strlen(ptr noundef %118) #9
  %120 = call i64 @php_output_write(ptr noundef %117, i64 noundef %119) #10
  br label %121

121:                                              ; preds = %116, %111
  br label %122

122:                                              ; preds = %121, %106
  br label %123

123:                                              ; preds = %122
  %124 = load i32, ptr %15, align 4
  %125 = add nsw i32 %124, 1
  store i32 %125, ptr %15, align 4
  br label %25

126:                                              ; preds = %25
  %127 = load i32, ptr getelementptr inbounds (%struct._sapi_module_struct, ptr @sapi_module, i32 0, i32 32), align 8
  %128 = icmp ne i32 %127, 0
  br i1 %128, label %134, label %129

129:                                              ; preds = %126
  store ptr @.str.126, ptr %11, align 8
  %130 = load ptr, ptr %11, align 8
  %131 = load ptr, ptr %11, align 8
  %132 = call i64 @strlen(ptr noundef %131) #9
  %133 = call i64 @php_output_write(ptr noundef %130, i64 noundef %132) #10
  br label %134

134:                                              ; preds = %129, %126
  ret void
}