; Function Attrs: nounwind uwtable
define internal fastcc void @php_info_print_table_row_internal(i32 noundef %0, ptr noundef %1, ptr nocapture noundef %2) unnamed_addr #0 {
  %4 = load i32, ptr getelementptr inbounds (%struct._sapi_module_struct, ptr @sapi_module, i64 0, i32 32), align 8
  %.not = icmp eq i32 %4, 0
  br i1 %.not, label %5, label %7

5:                                                ; preds = %3
  %6 = tail call i64 @php_output_write(ptr noundef nonnull @.str.135, i64 noundef 4) #14
  br label %7

7:                                                ; preds = %5, %3
  %8 = icmp sgt i32 %0, 0
  br i1 %8, label %.lr.ph, label %._crit_edge

.lr.ph:                                           ; preds = %7
  %9 = getelementptr inbounds i8, ptr %2, i64 8
  %10 = getelementptr inbounds i8, ptr %2, i64 16
  %11 = add nsw i32 %0, -1
  br label %12

12:                                               ; preds = %.lr.ph, %67
  %.040 = phi i32 [ 0, %.lr.ph ], [ %68, %67 ]
  %13 = load i32, ptr getelementptr inbounds (%struct._sapi_module_struct, ptr @sapi_module, i64 0, i32 32), align 8
  %.not34 = icmp eq i32 %13, 0
  br i1 %.not34, label %14, label %17

14:                                               ; preds = %12
  %15 = icmp eq i32 %.040, 0
  %16 = select i1 %15, ptr @.str.146, ptr %1
  tail call void (ptr, ...) @php_info_printf(ptr noundef nonnull @.str.145, ptr noundef %16)
  br label %17

17:                                               ; preds = %14, %12
  %18 = load i32, ptr %2, align 8
  %19 = icmp ult i32 %18, 41
  br i1 %19, label %20, label %25

20:                                               ; preds = %17
  %21 = load ptr, ptr %10, align 8
  %22 = zext nneg i32 %18 to i64
  %23 = getelementptr i8, ptr %21, i64 %22
  %24 = add nuw nsw i32 %18, 8
  store i32 %24, ptr %2, align 8
  br label %28

25:                                               ; preds = %17
  %26 = load ptr, ptr %9, align 8
  %27 = getelementptr i8, ptr %26, i64 8
  store ptr %27, ptr %9, align 8
  br label %28

28:                                               ; preds = %25, %20
  %29 = phi ptr [ %23, %20 ], [ %26, %25 ]
  %30 = load ptr, ptr %29, align 8
  %.not35 = icmp eq ptr %30, null
  br i1 %.not35, label %33, label %31

31:                                               ; preds = %28
  %32 = load i8, ptr %30, align 1
  %.not36 = icmp eq i8 %32, 0
  br i1 %.not36, label %33, label %39

33:                                               ; preds = %31, %28
  %34 = load i32, ptr getelementptr inbounds (%struct._sapi_module_struct, ptr @sapi_module, i64 0, i32 32), align 8
  %.not37 = icmp eq i32 %34, 0
  br i1 %.not37, label %35, label %37

35:                                               ; preds = %33
  %36 = tail call i64 @php_output_write(ptr noundef nonnull @.str.144, i64 noundef 15) #14
  br label %php_info_print_html_esc.exit

37:                                               ; preds = %33
  %38 = tail call i64 @php_output_write(ptr noundef nonnull @.str.121, i64 noundef 1) #14
  br label %php_info_print_html_esc.exit

39:                                               ; preds = %31
  %40 = load i32, ptr getelementptr inbounds (%struct._sapi_module_struct, ptr @sapi_module, i64 0, i32 32), align 8
  %.not38 = icmp eq i32 %40, 0
  %41 = tail call i64 @strlen(ptr noundef nonnull dereferenceable(1) %30) #13
  br i1 %.not38, label %42, label %55

42:                                               ; preds = %39
  %43 = tail call ptr @php_escape_html_entities(ptr noundef nonnull %30, i64 noundef %41, i32 noundef 0, i32 noundef 3, ptr noundef nonnull @.str.134) #14
  %44 = getelementptr inbounds i8, ptr %43, i64 24
  %45 = getelementptr inbounds i8, ptr %43, i64 16
  %46 = load i64, ptr %45, align 8
  %47 = tail call i64 @php_output_write(ptr noundef nonnull %44, i64 noundef %46) #14
  %48 = getelementptr inbounds i8, ptr %43, i64 4
  %49 = load i32, ptr %48, align 4
  %50 = and i32 %49, 64
  %.not.i = icmp eq i32 %50, 0
  br i1 %.not.i, label %51, label %php_info_print_html_esc.exit

51:                                               ; preds = %42
  %52 = and i32 %49, 128
  %.not11.i = icmp eq i32 %52, 0
  br i1 %.not11.i, label %54, label %53

53:                                               ; preds = %51
  tail call void @free(ptr noundef nonnull %43) #14
  br label %php_info_print_html_esc.exit

54:                                               ; preds = %51
  tail call void @_efree(ptr noundef nonnull %43) #14
  br label %php_info_print_html_esc.exit

55:                                               ; preds = %39
  %56 = tail call i64 @php_output_write(ptr noundef nonnull %30, i64 noundef %41) #14
  %57 = icmp slt i32 %.040, %11
  br i1 %57, label %58, label %php_info_print_html_esc.exit

58:                                               ; preds = %55
  %59 = tail call i64 @php_output_write(ptr noundef nonnull @.str.125, i64 noundef 4) #14
  br label %php_info_print_html_esc.exit

php_info_print_html_esc.exit:                     ; preds = %54, %53, %42, %58, %55, %35, %37
  %60 = load i32, ptr getelementptr inbounds (%struct._sapi_module_struct, ptr @sapi_module, i64 0, i32 32), align 8
  %.not39 = icmp eq i32 %60, 0
  br i1 %.not39, label %61, label %63

61:                                               ; preds = %php_info_print_html_esc.exit
  %62 = tail call i64 @php_output_write(ptr noundef nonnull @.str.147, i64 noundef 6) #14
  br label %67

63:                                               ; preds = %php_info_print_html_esc.exit
  %64 = icmp eq i32 %.040, %11
  br i1 %64, label %65, label %67

65:                                               ; preds = %63
  %66 = tail call i64 @php_output_write(ptr noundef nonnull @.str.65, i64 noundef 1) #14
  br label %67

67:                                               ; preds = %61, %65, %63
  %68 = add nuw nsw i32 %.040, 1
  %exitcond.not = icmp eq i32 %68, %0
  br i1 %exitcond.not, label %._crit_edge, label %12

._crit_edge:                                      ; preds = %67, %7
  %69 = load i32, ptr getelementptr inbounds (%struct._sapi_module_struct, ptr @sapi_module, i64 0, i32 32), align 8
  %.not33 = icmp eq i32 %69, 0
  br i1 %.not33, label %70, label %72

70:                                               ; preds = %._crit_edge
  %71 = tail call i64 @php_output_write(ptr noundef nonnull @.str.126, i64 noundef 6) #14
  br label %72

72:                                               ; preds = %70, %._crit_edge
  ret void
}